; Function Attrs: nounwind uwtable
define dso_local range(i32 -1, 1) i32 @PyFunction_ClearWatcher(i32 noundef %0) local_unnamed_addr #0 {
  %2 = tail call align 8 ptr @llvm.threadlocal.address.p0(ptr align 8 @_Py_tss_tstate)
  %3 = load ptr, ptr %2, align 8, !tbaa !4
  %4 = getelementptr inbounds nuw i8, ptr %3, i64 16
  %5 = load ptr, ptr %4, align 8, !tbaa !9
  %or.cond = icmp ugt i32 %0, 7
  br i1 %or.cond, label %6, label %9

6:                                                ; preds = %1
  %7 = load ptr, ptr @PyExc_ValueError, align 8, !tbaa !96
  %8 = tail call ptr (ptr, ptr, ...) @PyErr_Format(ptr noundef %7, ptr noundef nonnull @.str.1, i32 noundef %0) #8
  br label %24

9:                                                ; preds = %1
  %10 = getelementptr inbounds nuw i8, ptr %5, i64 8480
  %11 = zext nneg i32 %0 to i64
  %12 = getelementptr [8 x ptr], ptr %10, i64 0, i64 %11
  %13 = load ptr, ptr %12, align 8, !tbaa !21
  %.not = icmp eq ptr %13, null
  br i1 %.not, label %14, label %17

14:                                               ; preds = %9
  %15 = load ptr, ptr @PyExc_ValueError, align 8, !tbaa !96
  %16 = tail call ptr (ptr, ptr, ...) @PyErr_Format(ptr noundef %15, ptr noundef nonnull @.str.2, i32 noundef %0) #8
  br label %24

17:                                               ; preds = %9
  store ptr null, ptr %12, align 8, !tbaa !21
  %18 = shl nuw nsw i32 1, %0
  %19 = getelementptr inbounds nuw i8, ptr %5, i64 8544
  %20 = load i8, ptr %19, align 8, !tbaa !22
  %21 = trunc nuw i32 %18 to i8
  %22 = xor i8 %21, -1
  %23 = and i8 %20, %22
  store i8 %23, ptr %19, align 8, !tbaa !22
  br label %24

24:                                               ; preds = %17, %14, %6
  %.0 = phi i32 [ -1, %6 ], [ 0, %17 ], [ -1, %14 ]
  ret i32 %.0
}